target datalayout = "e-m:e-p270:32:32-p271:32:32-p272:64:64-i64:64-i128:128-f80:128-n8:16:32:64-S128"
target triple = "x86_64-pc-linux-gnu"

%struct.ZSTD_customMem = type { ptr, ptr, ptr }
%struct.ZSTD_frameParameters = type { i32, i32, i32 }
%struct.ZSTD_compressionParameters = type { i32, i32, i32, i32, i32, i32, i32 }
%struct.ZSTD_CCtx_s = type { i32, i32, i32, %struct.ZSTD_CCtx_params_s, %struct.ZSTD_CCtx_params_s, %struct.ZSTD_CCtx_params_s, i32, i64, %struct.ZSTD_cwksp, i64, i64, i64, i64, %struct.XXH64_state_s, %struct.ZSTD_customMem, ptr, i64, %struct.SeqCollector, i32, i32, %struct.SeqStore_t, %struct.ldmState_t, ptr, i64, %struct.RawSeqStore_t, %struct.ZSTD_blockState_t, ptr, i64, i32, ptr, i64, i64, i64, i64, ptr, i64, i64, i64, i32, i32, %struct.ZSTD_inBuffer_s, i64, i64, %struct.ZSTD_localDict, ptr, %struct.ZSTD_prefixDict_s, ptr, i64, %struct.ZSTD_blockSplitCtx, ptr, i64 }
%struct.ZSTD_CCtx_params_s = type { i32, %struct.ZSTD_compressionParameters, %struct.ZSTD_frameParameters, i32, i32, i64, i32, i32, i32, i32, i64, i32, i32, %struct.ldmParams_t, i32, i32, i32, i32, i32, i32, i32, i64, i32, i32, %struct.ZSTD_customMem, i32, i32, ptr, ptr, i32 }
%struct.ldmParams_t = type { i32, i32, i32, i32, i32, i32 }
%struct.ZSTD_cwksp = type { ptr, ptr, ptr, ptr, ptr, ptr, ptr, i8, i32, i32, i32 }
%struct.XXH64_state_s = type { i64, [4 x i64], [4 x i64], i32, i32, i64 }
%struct.SeqCollector = type { i32, ptr, i64, i64 }
%struct.SeqStore_t = type { ptr, ptr, ptr, ptr, ptr, ptr, ptr, i64, i64, i32, i32 }
%struct.ldmState_t = type { %struct.ZSTD_window_t, ptr, i32, ptr, [64 x i64], [64 x %struct.ldmMatchCandidate_t] }
%struct.ZSTD_window_t = type { ptr, ptr, ptr, i32, i32, i32 }
%struct.ldmMatchCandidate_t = type { ptr, i32, i32, ptr }
%struct.RawSeqStore_t = type { ptr, i64, i64, i64, i64 }
%struct.ZSTD_blockState_t = type { ptr, ptr, %struct.ZSTD_MatchState_t }
%struct.ZSTD_MatchState_t = type { %struct.ZSTD_window_t, i32, i32, i32, i32, ptr, [8 x i32], i64, i32, ptr, ptr, ptr, i32, i32, %struct.optState_t, ptr, %struct.ZSTD_compressionParameters, ptr, i32, i32 }
%struct.optState_t = type { ptr, ptr, ptr, ptr, ptr, ptr, i32, i32, i32, i32, i32, i32, i32, i32, i32, ptr, i32 }
%struct.ZSTD_inBuffer_s = type { ptr, i64, i64 }
%struct.ZSTD_localDict = type { ptr, ptr, i64, i32, ptr }
%struct.ZSTD_prefixDict_s = type { ptr, i64, i32 }
%struct.ZSTD_blockSplitCtx = type { %struct.SeqStore_t, %struct.SeqStore_t, %struct.SeqStore_t, %struct.SeqStore_t, %struct.SeqStore_t, [196 x i32], %struct.ZSTD_entropyCTablesMetadata_t }
%struct.ZSTD_entropyCTablesMetadata_t = type { %struct.ZSTD_hufCTablesMetadata_t, %struct.ZSTD_fseCTablesMetadata_t }
%struct.ZSTD_hufCTablesMetadata_t = type { i32, [128 x i8], i64 }
%struct.ZSTD_fseCTablesMetadata_t = type { i32, i32, i32, [133 x i8], i64, i64 }

; Function Attrs: nounwind uwtable
define internal i32 @ERR_isError(i64 noundef %0) #0 {
  %2 = alloca i64, align 8
  store i64 %0, ptr %2, align 8, !tbaa !3
  %3 = load i64, ptr %2, align 8, !tbaa !3
  %4 = icmp ugt i64 %3, -120
  %5 = zext i1 %4 to i32
  ret i32 %5
}

; Function Attrs: nounwind uwtable
define internal void @inBuffer_forEndFlush(ptr dead_on_unwind noalias writable sret(%struct.ZSTD_inBuffer_s) align 8 %0, ptr noundef %1) #0 {
  %3 = alloca ptr, align 8
  %4 = alloca %struct.ZSTD_inBuffer_s, align 8
  %5 = alloca i32, align 4
  store ptr %1, ptr %3, align 8, !tbaa !11
  call void @llvm.lifetime.start.p0(i64 24, ptr %4) #15
  call void @llvm.memset.p0.i64(ptr align 8 %4, i8 0, i64 24, i1 false)
  call void @llvm.lifetime.start.p0(i64 4, ptr %5) #15
  %6 = load ptr, ptr %3, align 8, !tbaa !11
  %7 = getelementptr inbounds nuw %struct.ZSTD_CCtx_s, ptr %6, i32 0, i32 4
  %8 = getelementptr inbounds nuw %struct.ZSTD_CCtx_params_s, ptr %7, i32 0, i32 15
  %9 = load i32, ptr %8, align 4, !tbaa !304
  %10 = icmp eq i32 %9, 1
  %11 = zext i1 %10 to i32
  store i32 %11, ptr %5, align 4, !tbaa !53
  %12 = load i32, ptr %5, align 4, !tbaa !53
  %13 = icmp ne i32 %12, 0
  br i1 %13, label %14, label %17

14:                                               ; preds = %2
  %15 = load ptr, ptr %3, align 8, !tbaa !11
  %16 = getelementptr inbounds nuw %struct.ZSTD_CCtx_s, ptr %15, i32 0, i32 40
  call void @llvm.memcpy.p0.p0.i64(ptr align 8 %0, ptr align 8 %16, i64 24, i1 false), !tbaa.struct !296
  br label %18

17:                                               ; preds = %2
  call void @llvm.memcpy.p0.p0.i64(ptr align 8 %0, ptr align 8 %4, i64 24, i1 false), !tbaa.struct !296
  br label %18

18:                                               ; preds = %17, %14
  call void @llvm.lifetime.end.p0(i64 4, ptr %5) #15
  call void @llvm.lifetime.end.p0(i64 24, ptr %4) #15
  ret void
}

; Function Attrs: nounwind uwtable
define i64 @ZSTD_endStream(ptr noundef %0, ptr noundef %1) #0 {
  %3 = alloca i64, align 8
  %4 = alloca ptr, align 8
  %5 = alloca ptr, align 8
  %6 = alloca %struct.ZSTD_inBuffer_s, align 8
  %7 = alloca i64, align 8
  %8 = alloca i64, align 8
  %9 = alloca i32, align 4
  %10 = alloca i64, align 8
  %11 = alloca i64, align 8
  %12 = alloca i64, align 8
  store ptr %0, ptr %4, align 8, !tbaa !11
  store ptr %1, ptr %5, align 8, !tbaa !283
  call void @llvm.lifetime.start.p0(i64 24, ptr %6) #15
  %13 = load ptr, ptr %4, align 8, !tbaa !11
  call void @inBuffer_forEndFlush(ptr dead_on_unwind writable sret(%struct.ZSTD_inBuffer_s) align 8 %6, ptr noundef %13)
  call void @llvm.lifetime.start.p0(i64 8, ptr %7) #15
  %14 = load ptr, ptr %4, align 8, !tbaa !11
  %15 = load ptr, ptr %5, align 8, !tbaa !283
  %16 = call i64 @ZSTD_compressStream2(ptr noundef %14, ptr noundef %15, ptr noundef %6, i32 noundef 2)
  store i64 %16, ptr %7, align 8, !tbaa !3
  br label %17

17:                                               ; preds = %2
  call void @llvm.lifetime.start.p0(i64 8, ptr %8) #15
  %18 = load i64, ptr %7, align 8, !tbaa !3
  store i64 %18, ptr %8, align 8, !tbaa !3
  %19 = load i64, ptr %8, align 8, !tbaa !3
  %20 = call i32 @ERR_isError(i64 noundef %19)
  %21 = icmp ne i32 %20, 0
  br i1 %21, label %22, label %36

22:                                               ; preds = %17
  br label %23

23:                                               ; preds = %22
  br label %24

24:                                               ; preds = %23
  br label %25

25:                                               ; preds = %24
  br label %26

26:                                               ; preds = %25
  br label %27

27:                                               ; preds = %26
  br label %28

28:                                               ; preds = %27
  br label %29

29:                                               ; preds = %28
  br label %30

30:                                               ; preds = %29
  br label %31

31:                                               ; preds = %30
  br label %32

32:                                               ; preds = %31
  br label %33

33:                                               ; preds = %32
  br label %34

34:                                               ; preds = %33
  %35 = load i64, ptr %8, align 8, !tbaa !3
  store i64 %35, ptr %3, align 8
  store i32 1, ptr %9, align 4
  br label %37

36:                                               ; preds = %17
  store i32 0, ptr %9, align 4
  br label %37

37:                                               ; preds = %36, %34
  call void @llvm.lifetime.end.p0(i64 8, ptr %8) #15
  %38 = load i32, ptr %9, align 4
  switch i32 %38, label %80 [
    i32 0, label %39
  ]

39:                                               ; preds = %37
  br label %40

40:                                               ; preds = %39
  br label %41

41:                                               ; preds = %40
  %42 = load ptr, ptr %4, align 8, !tbaa !11
  %43 = getelementptr inbounds nuw %struct.ZSTD_CCtx_s, ptr %42, i32 0, i32 4
  %44 = getelementptr inbounds nuw %struct.ZSTD_CCtx_params_s, ptr %43, i32 0, i32 9
  %45 = load i32, ptr %44, align 4, !tbaa !161
  %46 = icmp sgt i32 %45, 0
  br i1 %46, label %47, label %49

47:                                               ; preds = %41
  %48 = load i64, ptr %7, align 8, !tbaa !3
  store i64 %48, ptr %3, align 8
  store i32 1, ptr %9, align 4
  br label %80

49:                                               ; preds = %41
  call void @llvm.lifetime.start.p0(i64 8, ptr %10) #15
  %50 = load ptr, ptr %4, align 8, !tbaa !11
  %51 = getelementptr inbounds nuw %struct.ZSTD_CCtx_s, ptr %50, i32 0, i32 39
  %52 = load i32, ptr %51, align 4, !tbaa !307
  %53 = icmp ne i32 %52, 0
  %54 = select i1 %53, i32 0, i32 3
  %55 = sext i32 %54 to i64
  store i64 %55, ptr %10, align 8, !tbaa !3
  call void @llvm.lifetime.start.p0(i64 8, ptr %11) #15
  %56 = load ptr, ptr %4, align 8, !tbaa !11
  %57 = getelementptr inbounds nuw %struct.ZSTD_CCtx_s, ptr %56, i32 0, i32 39
  %58 = load i32, ptr %57, align 4, !tbaa !307
  %59 = icmp ne i32 %58, 0
  br i1 %59, label %60, label %61

60:                                               ; preds = %49
  br label %68

61:                                               ; preds = %49
  %62 = load ptr, ptr %4, align 8, !tbaa !11
  %63 = getelementptr inbounds nuw %struct.ZSTD_CCtx_s, ptr %62, i32 0, i32 4
  %64 = getelementptr inbounds nuw %struct.ZSTD_CCtx_params_s, ptr %63, i32 0, i32 2
  %65 = getelementptr inbounds nuw %struct.ZSTD_frameParameters, ptr %64, i32 0, i32 1
  %66 = load i32, ptr %65, align 4, !tbaa !275
  %67 = mul nsw i32 %66, 4
  br label %68

68:                                               ; preds = %61, %60
  %69 = phi i32 [ 0, %60 ], [ %67, %61 ]
  %70 = sext i32 %69 to i64
  store i64 %70, ptr %11, align 8, !tbaa !3
  call void @llvm.lifetime.start.p0(i64 8, ptr %12) #15
  %71 = load i64, ptr %7, align 8, !tbaa !3
  %72 = load i64, ptr %10, align 8, !tbaa !3
  %73 = add i64 %71, %72
  %74 = load i64, ptr %11, align 8, !tbaa !3
  %75 = add i64 %73, %74
  store i64 %75, ptr %12, align 8, !tbaa !3
  br label %76

76:                                               ; preds = %68
  br label %77

77:                                               ; preds = %76
  br label %78

78:                                               ; preds = %77
  %79 = load i64, ptr %12, align 8, !tbaa !3
  store i64 %79, ptr %3, align 8
  store i32 1, ptr %9, align 4
  call void @llvm.lifetime.end.p0(i64 8, ptr %12) #15
  call void @llvm.lifetime.end.p0(i64 8, ptr %11) #15
  call void @llvm.lifetime.end.p0(i64 8, ptr %10) #15
  br label %80

80:                                               ; preds = %78, %47, %37
  call void @llvm.lifetime.end.p0(i64 8, ptr %7) #15
  call void @llvm.lifetime.end.p0(i64 24, ptr %6) #15
  %81 = load i64, ptr %3, align 8
  ret i64 %81
}