; Function Attrs: nounwind uwtable
define i64 @ZSTD_endStream(ptr noundef %0, ptr noundef %1) local_unnamed_addr #2 {
  %3 = alloca %struct.ZSTD_inBuffer_s, align 8
  call void @llvm.lifetime.start.p0(i64 24, ptr nonnull %3) #28
  tail call void @llvm.experimental.noalias.scope.decl(metadata !364)
  %4 = getelementptr inbounds nuw i8, ptr %0, i64 364
  %5 = load i32, ptr %4, align 4, !tbaa !321, !noalias !364
  %6 = icmp eq i32 %5, 1
  br i1 %6, label %7, label %9

7:                                                ; preds = %2
  %8 = getelementptr inbounds nuw i8, ptr %0, i64 3648
  call void @llvm.memcpy.p0.p0.i64(ptr noundef nonnull align 8 dereferenceable(24) %3, ptr noundef nonnull readonly align 8 dereferenceable(24) %8, i64 24, i1 false), !tbaa.struct !326
  br label %inBuffer_forEndFlush.exit

9:                                                ; preds = %2
  call void @llvm.memset.p0.i64(ptr noundef nonnull align 8 dereferenceable(24) %3, i8 0, i64 24, i1 false), !alias.scope !364
  br label %inBuffer_forEndFlush.exit

inBuffer_forEndFlush.exit:                        ; preds = %7, %9
  %10 = call i64 @ZSTD_compressStream2(ptr noundef nonnull %0, ptr noundef %1, ptr noundef nonnull %3, i32 noundef 2)
  %11 = icmp ult i64 %10, -119
  br i1 %11, label %12, label %29

12:                                               ; preds = %inBuffer_forEndFlush.exit
  %13 = getelementptr inbounds nuw i8, ptr %0, i64 316
  %14 = load i32, ptr %13, align 4, !tbaa !149
  %15 = icmp sgt i32 %14, 0
  br i1 %15, label %29, label %16

16:                                               ; preds = %12
  %17 = getelementptr inbounds nuw i8, ptr %0, i64 3644
  %18 = load i32, ptr %17, align 4, !tbaa !337
  %.not17 = icmp eq i32 %18, 0
  %19 = select i1 %.not17, i64 3, i64 0
  br i1 %.not17, label %20, label %25

20:                                               ; preds = %16
  %21 = getelementptr inbounds nuw i8, ptr %0, i64 276
  %22 = load i32, ptr %21, align 4, !tbaa !243
  %23 = shl nsw i32 %22, 2
  %24 = sext i32 %23 to i64
  br label %25

25:                                               ; preds = %16, %20
  %26 = phi i64 [ %24, %20 ], [ 0, %16 ]
  %27 = add nuw i64 %19, %10
  %28 = add i64 %27, %26
  br label %29

29:                                               ; preds = %12, %inBuffer_forEndFlush.exit, %25
  %.1 = phi i64 [ %28, %25 ], [ %10, %inBuffer_forEndFlush.exit ], [ %10, %12 ]
  call void @llvm.lifetime.end.p0(i64 24, ptr nonnull %3) #28
  ret i64 %.1
}